(lp0
(F0.0
I0
cdatetime
date
p1
(S'\x07\xce\x03\x1e'
p2
tp3
Rp4
tp5
a(F0.0
I0
g1
(S'\x07\xce\x06\x1e'
p6
tp7
Rp8
tp9
a(F0.0
I0
g1
(S'\x07\xce\t\x1e'
p10
tp11
Rp12
tp13
a(F67.114093959731548
I1
g1
(S'\x07\xce\x0c\x1e'
p14
tp15
Rp16
tp17
a(F0.0
I0
g1
(S'\x07\xcf\x03\x1e'
p18
tp19
Rp20
tp21
a(F0.0
I0
g1
(S'\x07\xcf\x06\x1e'
p22
tp23
Rp24
tp25
a(F0.0
I0
g1
(S'\x07\xcf\t\x1e'
p26
tp27
Rp28
tp29
a(F49.019607843137258
I1
g1
(S'\x07\xcf\x0c\x1e'
p30
tp31
Rp32
tp33
a(F0.0
I0
g1
(S'\x07\xd0\x03\x1e'
p34
tp35
Rp36
tp37
a(F4.2462845010615711
I1
g1
(S'\x07\xd0\x06\x1e'
p38
tp39
Rp40
tp41
a(F7.0372976776917664
I2
g1
(S'\x07\xd0\t\x1e'
p42
tp43
Rp44
tp45
a(F9.3720712277413316
I3
g1
(S'\x07\xd0\x0c\x1e'
p46
tp47
Rp48
tp49
a(F4.5662100456621006
I2
g1
(S'\x07\xd1\x03\x1e'
p50
tp51
Rp52
tp53
a(F6.607929515418502
I3
g1
(S'\x07\xd1\x06\x1e'
p54
tp55
Rp56
tp57
a(F5.2281368821292773
I11
g1
(S'\x07\xd1\t\x1e'
p58
tp59
Rp60
tp61
a(F2.5370407956159937
I5
g1
(S'\x07\xd1\x0c\x1e'
p62
tp63
Rp64
tp65
a(F3.793626707132018
I3
g1
(S'\x07\xd2\x03\x1e'
p66
tp67
Rp68
tp69
a(F2.9901325625436059
I3
g1
(S'\x07\xd2\x06\x1e'
p70
tp71
Rp72
tp73
a(F5.6230319388214127
I5
g1
(S'\x07\xd2\t\x1e'
p74
tp75
Rp76
tp77
a(F6.7081935793004313
I7
g1
(S'\x07\xd2\x0c\x1e'
p78
tp79
Rp80
tp81
a(F16.992353440951572
I16
g1
(S'\x07\xd3\x03\x1e'
p82
tp83
Rp84
tp85
a(F2.818489289740699
I3
g1
(S'\x07\xd3\x06\x1e'
p86
tp87
Rp88
tp89
a(F5.7786766830395839
I4
g1
(S'\x07\xd3\t\x1e'
p90
tp91
Rp92
tp93
a(F8.1833060556464812
I6
g1
(S'\x07\xd3\x0c\x1e'
p94
tp95
Rp96
tp97
a(F6.9561760906290369
I7
g1
(S'\x07\xd4\x03\x1e'
p98
tp99
Rp100
tp101
a(F4.6317739694302915
I5
g1
(S'\x07\xd4\x06\x1e'
p102
tp103
Rp104
tp105
a(F0.0
I0
g1
(S'\x07\xd4\t\x1e'
p106
tp107
Rp108
tp109
a(F4.3283797431828015
I3
g1
(S'\x07\xd4\x0c\x1e'
p110
tp111
Rp112
tp113
a(F3.6284470246734397
I3
g1
(S'\x07\xd5\x03\x1e'
p114
tp115
Rp116
tp117
a(F2.9739776951672861
I2
g1
(S'\x07\xd5\x06\x1e'
p118
tp119
Rp120
tp121
a(F14.035087719298245
I12
g1
(S'\x07\xd5\t\x1e'
p122
tp123
Rp124
tp125
a(F16.521477921297688
I11
g1
(S'\x07\xd5\x0c\x1e'
p126
tp127
Rp128
tp129
a(F6.4998375040623984
I6
g1
(S'\x07\xd6\x03\x1e'
p130
tp131
Rp132
tp133
a(F3.3322225924691771
I2
g1
(S'\x07\xd6\x06\x1e'
p134
tp135
Rp136
tp137
a(F4.7114252061248525
I4
g1
(S'\x07\xd6\t\x1e'
p138
tp139
Rp140
tp141
a(F2.0837674515524069
I3
g1
(S'\x07\xd6\x0c\x1e'
p142
tp143
Rp144
tp145
a(F0.0
I0
g1
(S'\x07\xd7\x03\x1e'
p146
tp147
Rp148
tp149
a(F4.9622319016375362
I9
g1
(S'\x07\xd7\x06\x1e'
p150
tp151
Rp152
tp153
a(F2.8925420623824905
I6
g1
(S'\x07\xd7\t\x1e'
p154
tp155
Rp156
tp157
a(F1.1044232149759787
I2
g1
(S'\x07\xd7\x0c\x1e'
p158
tp159
Rp160
tp161
a(F2.9735355337496281
I2
g1
(S'\x07\xd8\x03\x1e'
p162
tp163
Rp164
tp165
a(F0.0
I0
g1
(S'\x07\xd8\x06\x1e'
p166
tp167
Rp168
tp169
a(F0.0
I0
g1
(S'\x07\xd8\t\x1e'
p170
tp171
Rp172
tp173
a(I0
I0
g1
(S'\x07\xd8\x0c\x1e'
p174
tp175
Rp176
tp177
a.