(lp0
(F129.87012987012986
I1
cdatetime
date
p1
(S'\x07\xce\x03\x1e'
p2
tp3
Rp4
tp5
a(F0.0
I0
g1
(S'\x07\xce\x06\x1e'
p6
tp7
Rp8
tp9
a(F0.0
I0
g1
(S'\x07\xce\t\x1e'
p10
tp11
Rp12
tp13
a(F0.0
I0
g1
(S'\x07\xce\x0c\x1e'
p14
tp15
Rp16
tp17
a(F44.642857142857146
I1
g1
(S'\x07\xcf\x03\x1e'
p18
tp19
Rp20
tp21
a(F0.0
I0
g1
(S'\x07\xcf\x06\x1e'
p22
tp23
Rp24
tp25
a(F0.0
I0
g1
(S'\x07\xcf\t\x1e'
p26
tp27
Rp28
tp29
a(F49.019607843137258
I1
g1
(S'\x07\xcf\x0c\x1e'
p30
tp31
Rp32
tp33
a(F75.566750629722918
I6
g1
(S'\x07\xd0\x03\x1e'
p34
tp35
Rp36
tp37
a(F127.38853503184713
I30
g1
(S'\x07\xd0\x06\x1e'
p38
tp39
Rp40
tp41
a(F116.11541168191414
I33
g1
(S'\x07\xd0\t\x1e'
p42
tp43
Rp44
tp45
a(F103.09278350515464
I33
g1
(S'\x07\xd0\x0c\x1e'
p46
tp47
Rp48
tp49
a(F212.32876712328766
I93
g1
(S'\x07\xd1\x03\x1e'
p50
tp51
Rp52
tp53
a(F44.052863436123346
I20
g1
(S'\x07\xd1\x06\x1e'
p54
tp55
Rp56
tp57
a(F93.155893536121667
I196
g1
(S'\x07\xd1\t\x1e'
p58
tp59
Rp60
tp61
a(F70.529734118124622
I139
g1
(S'\x07\xd1\x0c\x1e'
p62
tp63
Rp64
tp65
a(F84.72432979261508
I67
g1
(S'\x07\xd2\x03\x1e'
p66
tp67
Rp68
tp69
a(F63.789494667596934
I64
g1
(S'\x07\xd2\x06\x1e'
p70
tp71
Rp72
tp73
a(F77.59784075573549
I69
g1
(S'\x07\xd2\t\x1e'
p74
tp75
Rp76
tp77
a(F82.414949688548148
I86
g1
(S'\x07\xd2\x0c\x1e'
p78
tp79
Rp80
tp81
a(F103.01614273576891
I97
g1
(S'\x07\xd3\x03\x1e'
p82
tp83
Rp84
tp85
a(F117.43705373919579
I125
g1
(S'\x07\xd3\x06\x1e'
p86
tp87
Rp88
tp89
a(F112.68419531927189
I78
g1
(S'\x07\xd3\t\x1e'
p90
tp91
Rp92
tp93
a(F132.29678123295145
I97
g1
(S'\x07\xd3\x0c\x1e'
p94
tp95
Rp96
tp97
a(F137.13604292954386
I138
g1
(S'\x07\xd4\x03\x1e'
p98
tp99
Rp100
tp101
a(F111.162575266327
I120
g1
(S'\x07\xd4\x06\x1e'
p102
tp103
Rp104
tp105
a(F110.83743842364532
I81
g1
(S'\x07\xd4\t\x1e'
p106
tp107
Rp108
tp109
a(F173.13518972731208
I120
g1
(S'\x07\xd4\x0c\x1e'
p110
tp111
Rp112
tp113
a(F187.46976294146106
I155
g1
(S'\x07\xd5\x03\x1e'
p114
tp115
Rp116
tp117
a(F130.8550185873606
I88
g1
(S'\x07\xd5\x06\x1e'
p118
tp119
Rp120
tp121
a(F100.58479532163743
I86
g1
(S'\x07\xd5\t\x1e'
p122
tp123
Rp124
tp125
a(F109.64253529588466
I73
g1
(S'\x07\xd5\x0c\x1e'
p126
tp127
Rp128
tp129
a(F87.747806304842385
I81
g1
(S'\x07\xd6\x03\x1e'
p130
tp131
Rp132
tp133
a(F114.9616794401866
I69
g1
(S'\x07\xd6\x06\x1e'
p134
tp135
Rp136
tp137
a(F69.493521790341575
I59
g1
(S'\x07\xd6\t\x1e'
p138
tp139
Rp140
tp141
a(F24.310620268111411
I35
g1
(S'\x07\xd6\x0c\x1e'
p142
tp143
Rp144
tp145
a(F56.282324307879527
I74
g1
(S'\x07\xd7\x03\x1e'
p146
tp147
Rp148
tp149
a(F63.957655621106028
I116
g1
(S'\x07\xd7\x06\x1e'
p150
tp151
Rp152
tp153
a(F68.456828809718942
I142
g1
(S'\x07\xd7\t\x1e'
p154
tp155
Rp156
tp157
a(F94.980396487934172
I172
g1
(S'\x07\xd7\x0c\x1e'
p158
tp159
Rp160
tp161
a(F71.364852809991078
I48
g1
(S'\x07\xd8\x03\x1e'
p162
tp163
Rp164
tp165
a(F142.91719209751997
I34
g1
(S'\x07\xd8\x06\x1e'
p166
tp167
Rp168
tp169
a(F103.35917312661499
I24
g1
(S'\x07\xd8\t\x1e'
p170
tp171
Rp172
tp173
a(I0
I0
g1
(S'\x07\xd8\x0c\x1e'
p174
tp175
Rp176
tp177
a.