(lp0
(F0.0
I0
cdatetime
date
p1
(S'\x07\xce\x03\x1e'
p2
tp3
Rp4
tp5
a(F0.0
I0
g1
(S'\x07\xce\x06\x1e'
p6
tp7
Rp8
tp9
a(F0.0
I0
g1
(S'\x07\xce\t\x1e'
p10
tp11
Rp12
tp13
a(F0.0
I0
g1
(S'\x07\xce\x0c\x1e'
p14
tp15
Rp16
tp17
a(F0.0
I0
g1
(S'\x07\xcf\x03\x1e'
p18
tp19
Rp20
tp21
a(F0.0
I0
g1
(S'\x07\xcf\x06\x1e'
p22
tp23
Rp24
tp25
a(F0.0
I0
g1
(S'\x07\xcf\t\x1e'
p26
tp27
Rp28
tp29
a(F0.0
I0
g1
(S'\x07\xcf\x0c\x1e'
p30
tp31
Rp32
tp33
a(F0.0
I0
g1
(S'\x07\xd0\x03\x1e'
p34
tp35
Rp36
tp37
a(F12.738853503184714
I3
g1
(S'\x07\xd0\x06\x1e'
p38
tp39
Rp40
tp41
a(F7.0372976776917664
I2
g1
(S'\x07\xd0\t\x1e'
p42
tp43
Rp44
tp45
a(F31.240237425804438
I10
g1
(S'\x07\xd0\x0c\x1e'
p46
tp47
Rp48
tp49
a(F52.511415525114153
I23
g1
(S'\x07\xd1\x03\x1e'
p50
tp51
Rp52
tp53
a(F4.4052863436123344
I2
g1
(S'\x07\xd1\x06\x1e'
p54
tp55
Rp56
tp57
a(F4.752851711026616
I10
g1
(S'\x07\xd1\t\x1e'
p58
tp59
Rp60
tp61
a(F7.1037142277247822
I14
g1
(S'\x07\xd1\x0c\x1e'
p62
tp63
Rp64
tp65
a(F3.793626707132018
I3
g1
(S'\x07\xd2\x03\x1e'
p66
tp67
Rp68
tp69
a(F6.9769759792684143
I7
g1
(S'\x07\xd2\x06\x1e'
p70
tp71
Rp72
tp73
a(F12.370670265407108
I11
g1
(S'\x07\xd2\t\x1e'
p74
tp75
Rp76
tp77
a(F19.166267369429804
I20
g1
(S'\x07\xd2\x0c\x1e'
p78
tp79
Rp80
tp81
a(F18.054375531011043
I17
g1
(S'\x07\xd3\x03\x1e'
p82
tp83
Rp84
tp85
a(F9.3949642991356637
I10
g1
(S'\x07\xd3\x06\x1e'
p86
tp87
Rp88
tp89
a(F15.891360878358856
I11
g1
(S'\x07\xd3\t\x1e'
p90
tp91
Rp92
tp93
a(F24.549918166939445
I18
g1
(S'\x07\xd3\x0c\x1e'
p94
tp95
Rp96
tp97
a(F12.91861273973964
I13
g1
(S'\x07\xd4\x03\x1e'
p98
tp99
Rp100
tp101
a(F12.042612320518758
I13
g1
(S'\x07\xd4\x06\x1e'
p102
tp103
Rp104
tp105
a(F19.157088122605366
I14
g1
(S'\x07\xd4\t\x1e'
p106
tp107
Rp108
tp109
a(F20.19910546818641
I14
g1
(S'\x07\xd4\x0c\x1e'
p110
tp111
Rp112
tp113
a(F13.304305757135946
I11
g1
(S'\x07\xd5\x03\x1e'
p114
tp115
Rp116
tp117
a(F5.9479553903345721
I4
g1
(S'\x07\xd5\x06\x1e'
p118
tp119
Rp120
tp121
a(F25.730994152046783
I22
g1
(S'\x07\xd5\t\x1e'
p122
tp123
Rp124
tp125
a(F13.517572844698108
I9
g1
(S'\x07\xd5\x0c\x1e'
p126
tp127
Rp128
tp129
a(F15.166287509478929
I14
g1
(S'\x07\xd6\x03\x1e'
p130
tp131
Rp132
tp133
a(F19.993335554815062
I12
g1
(S'\x07\xd6\x06\x1e'
p134
tp135
Rp136
tp137
a(F7.0671378091872787
I6
g1
(S'\x07\xd6\t\x1e'
p138
tp139
Rp140
tp141
a(F5.5567132041397516
I8
g1
(S'\x07\xd6\x0c\x1e'
p142
tp143
Rp144
tp145
a(F6.0845756008518403
I8
g1
(S'\x07\xd7\x03\x1e'
p146
tp147
Rp148
tp149
a(F3.3081546010916911
I6
g1
(S'\x07\xd7\x06\x1e'
p150
tp151
Rp152
tp153
a(F5.7850841247649809
I12
g1
(S'\x07\xd7\t\x1e'
p154
tp155
Rp156
tp157
a(F4.9699044673919044
I9
g1
(S'\x07\xd7\x0c\x1e'
p158
tp159
Rp160
tp161
a(F11.894142134998512
I8
g1
(S'\x07\xd8\x03\x1e'
p162
tp163
Rp164
tp165
a(F25.220680958385877
I6
g1
(S'\x07\xd8\x06\x1e'
p166
tp167
Rp168
tp169
a(F0.0
I0
g1
(S'\x07\xd8\t\x1e'
p170
tp171
Rp172
tp173
a(I0
I0
g1
(S'\x07\xd8\x0c\x1e'
p174
tp175
Rp176
tp177
a.