(lp0
(F0.0
I0
cdatetime
date
p1
(S'\x07\xce\x03\x1e'
p2
tp3
Rp4
tp5
a(F154.63917525773195
I3
g1
(S'\x07\xce\x06\x1e'
p6
tp7
Rp8
tp9
a(F142.85714285714286
I2
g1
(S'\x07\xce\t\x1e'
p10
tp11
Rp12
tp13
a(F67.114093959731548
I1
g1
(S'\x07\xce\x0c\x1e'
p14
tp15
Rp16
tp17
a(F0.0
I0
g1
(S'\x07\xcf\x03\x1e'
p18
tp19
Rp20
tp21
a(F47.169811320754718
I1
g1
(S'\x07\xcf\x06\x1e'
p22
tp23
Rp24
tp25
a(F0.0
I0
g1
(S'\x07\xcf\t\x1e'
p26
tp27
Rp28
tp29
a(F98.039215686274517
I2
g1
(S'\x07\xcf\x0c\x1e'
p30
tp31
Rp32
tp33
a(F62.97229219143577
I5
g1
(S'\x07\xd0\x03\x1e'
p34
tp35
Rp36
tp37
a(F161.3588110403397
I38
g1
(S'\x07\xd0\x06\x1e'
p38
tp39
Rp40
tp41
a(F105.55946516537649
I30
g1
(S'\x07\xd0\t\x1e'
p42
tp43
Rp44
tp45
a(F128.0849734457982
I41
g1
(S'\x07\xd0\x0c\x1e'
p46
tp47
Rp48
tp49
a(F134.70319634703196
I59
g1
(S'\x07\xd1\x03\x1e'
p50
tp51
Rp52
tp53
a(F52.863436123348016
I24
g1
(S'\x07\xd1\x06\x1e'
p54
tp55
Rp56
tp57
a(F31.368821292775664
I66
g1
(S'\x07\xd1\t\x1e'
p58
tp59
Rp60
tp61
a(F29.937081388268723
I59
g1
(S'\x07\xd1\x0c\x1e'
p62
tp63
Rp64
tp65
a(F60.698027314112288
I48
g1
(S'\x07\xd2\x03\x1e'
p66
tp67
Rp68
tp69
a(F73.756603209408951
I74
g1
(S'\x07\xd2\x06\x1e'
p70
tp71
Rp72
tp73
a(F46.108861898335583
I41
g1
(S'\x07\xd2\t\x1e'
p74
tp75
Rp76
tp77
a(F47.915668423574509
I50
g1
(S'\x07\xd2\x0c\x1e'
p78
tp79
Rp80
tp81
a(F75.403568394222603
I71
g1
(S'\x07\xd3\x03\x1e'
p82
tp83
Rp84
tp85
a(F60.127771514468243
I64
g1
(S'\x07\xd3\x06\x1e'
p86
tp87
Rp88
tp89
a(F67.899451025715109
I47
g1
(S'\x07\xd3\t\x1e'
p90
tp91
Rp92
tp93
a(F51.827605019094378
I38
g1
(S'\x07\xd3\x0c\x1e'
p94
tp95
Rp96
tp97
a(F48.693232634403259
I49
g1
(S'\x07\xd4\x03\x1e'
p98
tp99
Rp100
tp101
a(F37.980546549328395
I41
g1
(S'\x07\xd4\x06\x1e'
p102
tp103
Rp104
tp105
a(F57.47126436781609
I42
g1
(S'\x07\xd4\t\x1e'
p106
tp107
Rp108
tp109
a(F47.612177175010821
I33
g1
(S'\x07\xd4\x0c\x1e'
p110
tp111
Rp112
tp113
a(F48.379293662312527
I40
g1
(S'\x07\xd5\x03\x1e'
p114
tp115
Rp116
tp117
a(F50.557620817843869
I34
g1
(S'\x07\xd5\x06\x1e'
p118
tp119
Rp120
tp121
a(F249.12280701754386
I213
g1
(S'\x07\xd5\t\x1e'
p122
tp123
Rp124
tp125
a(F105.13667768098529
I70
g1
(S'\x07\xd5\x0c\x1e'
p126
tp127
Rp128
tp129
a(F81.247968800779987
I75
g1
(S'\x07\xd6\x03\x1e'
p130
tp131
Rp132
tp133
a(F71.642785738087298
I43
g1
(S'\x07\xd6\x06\x1e'
p134
tp135
Rp136
tp137
a(F44.7585394581861
I38
g1
(S'\x07\xd6\t\x1e'
p138
tp139
Rp140
tp141
a(F20.143085365006598
I29
g1
(S'\x07\xd6\x0c\x1e'
p142
tp143
Rp144
tp145
a(F31.944021904472162
I42
g1
(S'\x07\xd7\x03\x1e'
p146
tp147
Rp148
tp149
a(F19.848927606550145
I36
g1
(S'\x07\xd7\x06\x1e'
p150
tp151
Rp152
tp153
a(F10.605987562069132
I22
g1
(S'\x07\xd7\t\x1e'
p154
tp155
Rp156
tp157
a(F24.297310729471533
I44
g1
(S'\x07\xd7\x0c\x1e'
p158
tp159
Rp160
tp161
a(F19.327980969372582
I13
g1
(S'\x07\xd8\x03\x1e'
p162
tp163
Rp164
tp165
a(F50.441361916771754
I12
g1
(S'\x07\xd8\x06\x1e'
p166
tp167
Rp168
tp169
a(F17.226528854435831
I4
g1
(S'\x07\xd8\t\x1e'
p170
tp171
Rp172
tp173
a(I0
I0
g1
(S'\x07\xd8\x0c\x1e'
p174
tp175
Rp176
tp177
a.