(lp0
(I0
I0
cdatetime
date
p1
(S'\x07\xce\x03\x1e'
p2
tp3
Rp4
tp5
a(I0
I0
g1
(S'\x07\xce\x06\x1e'
p6
tp7
Rp8
tp9
a(I0
I0
g1
(S'\x07\xce\t\x1e'
p10
tp11
Rp12
tp13
a(I0
I0
g1
(S'\x07\xce\x0c\x1e'
p14
tp15
Rp16
tp17
a(I0
I0
g1
(S'\x07\xcf\x03\x1e'
p18
tp19
Rp20
tp21
a(I0
I0
g1
(S'\x07\xcf\x06\x1e'
p22
tp23
Rp24
tp25
a(I0
I0
g1
(S'\x07\xcf\t\x1e'
p26
tp27
Rp28
tp29
a(I0
I0
g1
(S'\x07\xcf\x0c\x1e'
p30
tp31
Rp32
tp33
a(I0
I0
g1
(S'\x07\xd0\x03\x1e'
p34
tp35
Rp36
tp37
a(I0
I0
g1
(S'\x07\xd0\x06\x1e'
p38
tp39
Rp40
tp41
a(I0
I0
g1
(S'\x07\xd0\t\x1e'
p42
tp43
Rp44
tp45
a(I0
I0
g1
(S'\x07\xd0\x0c\x1e'
p46
tp47
Rp48
tp49
a(I0
I0
g1
(S'\x07\xd1\x03\x1e'
p50
tp51
Rp52
tp53
a(F0.0
I0
g1
(S'\x07\xd1\x06\x1e'
p54
tp55
Rp56
tp57
a(F0.0
I0
g1
(S'\x07\xd1\t\x1e'
p58
tp59
Rp60
tp61
a(F156.25
I1
g1
(S'\x07\xd1\x0c\x1e'
p62
tp63
Rp64
tp65
a(F156.25
I2
g1
(S'\x07\xd2\x03\x1e'
p66
tp67
Rp68
tp69
a(F147.05882352941177
I10
g1
(S'\x07\xd2\x06\x1e'
p70
tp71
Rp72
tp73
a(F148.10045074050225
I23
g1
(S'\x07\xd2\t\x1e'
p74
tp75
Rp76
tp77
a(F146.93171996542782
I17
g1
(S'\x07\xd2\x0c\x1e'
p78
tp79
Rp80
tp81
a(F145.39579967689824
I18
g1
(S'\x07\xd3\x03\x1e'
p82
tp83
Rp84
tp85
a(F131.57894736842104
I10
g1
(S'\x07\xd3\x06\x1e'
p86
tp87
Rp88
tp89
a(F112.67605633802818
I12
g1
(S'\x07\xd3\t\x1e'
p90
tp91
Rp92
tp93
a(F289.4736842105263
I22
g1
(S'\x07\xd3\x0c\x1e'
p94
tp95
Rp96
tp97
a(F155.84415584415584
I12
g1
(S'\x07\xd4\x03\x1e'
p98
tp99
Rp100
tp101
a(F188.67924528301887
I8
g1
(S'\x07\xd4\x06\x1e'
p102
tp103
Rp104
tp105
a(F213.90374331550802
I20
g1
(S'\x07\xd4\t\x1e'
p106
tp107
Rp108
tp109
a(F282.25806451612902
I21
g1
(S'\x07\xd4\x0c\x1e'
p110
tp111
Rp112
tp113
a(F170.55655296229801
I19
g1
(S'\x07\xd5\x03\x1e'
p114
tp115
Rp116
tp117
a(F96.618357487922708
I4
g1
(S'\x07\xd5\x06\x1e'
p118
tp119
Rp120
tp121
a(F205.27859237536657
I14
g1
(S'\x07\xd5\t\x1e'
p122
tp123
Rp124
tp125
a(F260.77097505668934
I23
g1
(S'\x07\xd5\x0c\x1e'
p126
tp127
Rp128
tp129
a(F76.857386848847142
I9
g1
(S'\x07\xd6\x03\x1e'
p130
tp131
Rp132
tp133
a(F192.11324570273004
I19
g1
(S'\x07\xd6\x06\x1e'
p134
tp135
Rp136
tp137
a(F138.19095477386935
I11
g1
(S'\x07\xd6\t\x1e'
p138
tp139
Rp140
tp141
a(F157.17092337917487
I8
g1
(S'\x07\xd6\x0c\x1e'
p142
tp143
Rp144
tp145
a(F146.13778705636744
I7
g1
(S'\x07\xd7\x03\x1e'
p146
tp147
Rp148
tp149
a(F61.255742725880552
I4
g1
(S'\x07\xd7\x06\x1e'
p150
tp151
Rp152
tp153
a(F25.575447570332482
I1
g1
(S'\x07\xd7\t\x1e'
p154
tp155
Rp156
tp157
a(F88.050314465408803
I7
g1
(S'\x07\xd7\x0c\x1e'
p158
tp159
Rp160
tp161
a(F107.52688172043011
I5
g1
(S'\x07\xd8\x03\x1e'
p162
tp163
Rp164
tp165
a(F80.97165991902834
I2
g1
(S'\x07\xd8\x06\x1e'
p166
tp167
Rp168
tp169
a(F36.764705882352942
I1
g1
(S'\x07\xd8\t\x1e'
p170
tp171
Rp172
tp173
a(I0
I0
g1
(S'\x07\xd8\x0c\x1e'
p174
tp175
Rp176
tp177
a.