(lp0
(F0.0
I0
cdatetime
date
p1
(S'\x07\xce\x03\x1e'
p2
tp3
Rp4
tp5
a(I0
I0
g1
(S'\x07\xce\x06\x1e'
p6
tp7
Rp8
tp9
a(F0.0
I0
g1
(S'\x07\xce\t\x1e'
p10
tp11
Rp12
tp13
a(F0.0
I0
g1
(S'\x07\xce\x0c\x1e'
p14
tp15
Rp16
tp17
a(F0.0
I0
g1
(S'\x07\xcf\x03\x1e'
p18
tp19
Rp20
tp21
a(I0
I0
g1
(S'\x07\xcf\x06\x1e'
p22
tp23
Rp24
tp25
a(F0.0
I0
g1
(S'\x07\xcf\t\x1e'
p26
tp27
Rp28
tp29
a(F0.0
I0
g1
(S'\x07\xcf\x0c\x1e'
p30
tp31
Rp32
tp33
a(F37.453183520599254
I2
g1
(S'\x07\xd0\x03\x1e'
p34
tp35
Rp36
tp37
a(F72.780203784570602
I10
g1
(S'\x07\xd0\x06\x1e'
p38
tp39
Rp40
tp41
a(F38.888888888888886
I7
g1
(S'\x07\xd0\t\x1e'
p42
tp43
Rp44
tp45
a(F154.00410677618069
I30
g1
(S'\x07\xd0\x0c\x1e'
p46
tp47
Rp48
tp49
a(F89.192025183630633
I17
g1
(S'\x07\xd1\x03\x1e'
p50
tp51
Rp52
tp53
a(F244.89795918367346
I24
g1
(S'\x07\xd1\x06\x1e'
p54
tp55
Rp56
tp57
a(F618.42105263157896
I47
g1
(S'\x07\xd1\t\x1e'
p58
tp59
Rp60
tp61
a(F145.57670772676371
I13
g1
(S'\x07\xd1\x0c\x1e'
p62
tp63
Rp64
tp65
a(F344.44444444444446
I62
g1
(S'\x07\xd2\x03\x1e'
p66
tp67
Rp68
tp69
a(F58.384690236782355
I18
g1
(S'\x07\xd2\x06\x1e'
p70
tp71
Rp72
tp73
a(F185.59295375904372
I59
g1
(S'\x07\xd2\t\x1e'
p74
tp75
Rp76
tp77
a(F77.650236326806208
I23
g1
(S'\x07\xd2\x0c\x1e'
p78
tp79
Rp80
tp81
a(F35.087719298245617
I11
g1
(S'\x07\xd3\x03\x1e'
p82
tp83
Rp84
tp85
a(F47.536732929991359
I11
g1
(S'\x07\xd3\x06\x1e'
p86
tp87
Rp88
tp89
a(F34.655371582595301
I9
g1
(S'\x07\xd3\t\x1e'
p90
tp91
Rp92
tp93
a(F189.62962962962962
I64
g1
(S'\x07\xd3\x0c\x1e'
p94
tp95
Rp96
tp97
a(F44.121463794445887
I17
g1
(S'\x07\xd4\x03\x1e'
p98
tp99
Rp100
tp101
a(F114.59386585776879
I34
g1
(S'\x07\xd4\x06\x1e'
p102
tp103
Rp104
tp105
a(F42.227500659804697
I16
g1
(S'\x07\xd4\t\x1e'
p106
tp107
Rp108
tp109
a(F37.278657968313141
I12
g1
(S'\x07\xd4\x0c\x1e'
p110
tp111
Rp112
tp113
a(F9.1848450057405273
I4
g1
(S'\x07\xd5\x03\x1e'
p114
tp115
Rp116
tp117
a(F58.153058850895555
I25
g1
(S'\x07\xd5\x06\x1e'
p118
tp119
Rp120
tp121
a(F68.842427332993367
I27
g1
(S'\x07\xd5\t\x1e'
p122
tp123
Rp124
tp125
a(F58.394160583941606
I16
g1
(S'\x07\xd5\x0c\x1e'
p126
tp127
Rp128
tp129
a(F90.019569471624266
I23
g1
(S'\x07\xd6\x03\x1e'
p130
tp131
Rp132
tp133
a(F39.447731755424066
I8
g1
(S'\x07\xd6\x06\x1e'
p134
tp135
Rp136
tp137
a(F8.1732733959950963
I2
g1
(S'\x07\xd6\t\x1e'
p138
tp139
Rp140
tp141
a(F15.616866215512754
I24
g1
(S'\x07\xd6\x0c\x1e'
p142
tp143
Rp144
tp145
a(F29.977691020635806
I43
g1
(S'\x07\xd7\x03\x1e'
p146
tp147
Rp148
tp149
a(F38.865137971239797
I40
g1
(S'\x07\xd7\x06\x1e'
p150
tp151
Rp152
tp153
a(F71.125387174486633
I62
g1
(S'\x07\xd7\t\x1e'
p154
tp155
Rp156
tp157
a(F73.509636934110262
I82
g1
(S'\x07\xd7\x0c\x1e'
p158
tp159
Rp160
tp161
a(F26.89618074233459
I10
g1
(S'\x07\xd8\x03\x1e'
p162
tp163
Rp164
tp165
a(F50.06257822277847
I8
g1
(S'\x07\xd8\x06\x1e'
p166
tp167
Rp168
tp169
a(F0.0
I0
g1
(S'\x07\xd8\t\x1e'
p170
tp171
Rp172
tp173
a(I0
I0
g1
(S'\x07\xd8\x0c\x1e'
p174
tp175
Rp176
tp177
a.