(lp0
(F0.0
I0
cdatetime
date
p1
(S'\x07\xce\x03\x1e'
p2
tp3
Rp4
tp5
a(I0
I0
g1
(S'\x07\xce\x06\x1e'
p6
tp7
Rp8
tp9
a(F0.0
I0
g1
(S'\x07\xce\t\x1e'
p10
tp11
Rp12
tp13
a(F0.0
I0
g1
(S'\x07\xce\x0c\x1e'
p14
tp15
Rp16
tp17
a(F0.0
I0
g1
(S'\x07\xcf\x03\x1e'
p18
tp19
Rp20
tp21
a(I0
I0
g1
(S'\x07\xcf\x06\x1e'
p22
tp23
Rp24
tp25
a(F0.0
I0
g1
(S'\x07\xcf\t\x1e'
p26
tp27
Rp28
tp29
a(F0.0
I0
g1
(S'\x07\xcf\x0c\x1e'
p30
tp31
Rp32
tp33
a(F18.726591760299627
I1
g1
(S'\x07\xd0\x03\x1e'
p34
tp35
Rp36
tp37
a(F36.390101892285301
I5
g1
(S'\x07\xd0\x06\x1e'
p38
tp39
Rp40
tp41
a(F16.666666666666668
I3
g1
(S'\x07\xd0\t\x1e'
p42
tp43
Rp44
tp45
a(F35.93429158110883
I7
g1
(S'\x07\xd0\x0c\x1e'
p46
tp47
Rp48
tp49
a(F20.986358866736619
I4
g1
(S'\x07\xd1\x03\x1e'
p50
tp51
Rp52
tp53
a(F102.04081632653062
I10
g1
(S'\x07\xd1\x06\x1e'
p54
tp55
Rp56
tp57
a(F92.10526315789474
I7
g1
(S'\x07\xd1\t\x1e'
p58
tp59
Rp60
tp61
a(F67.189249720044799
I6
g1
(S'\x07\xd1\x0c\x1e'
p62
tp63
Rp64
tp65
a(F83.333333333333329
I15
g1
(S'\x07\xd2\x03\x1e'
p66
tp67
Rp68
tp69
a(F45.410314628608496
I14
g1
(S'\x07\xd2\x06\x1e'
p70
tp71
Rp72
tp73
a(F28.310789556464297
I9
g1
(S'\x07\xd2\t\x1e'
p74
tp75
Rp76
tp77
a(F27.008777852802162
I8
g1
(S'\x07\xd2\x0c\x1e'
p78
tp79
Rp80
tp81
a(F19.138755980861244
I6
g1
(S'\x07\xd3\x03\x1e'
p82
tp83
Rp84
tp85
a(F8.6430423509075194
I2
g1
(S'\x07\xd3\x06\x1e'
p86
tp87
Rp88
tp89
a(F7.7011936850211784
I2
g1
(S'\x07\xd3\t\x1e'
p90
tp91
Rp92
tp93
a(F17.777777777777779
I6
g1
(S'\x07\xd3\x0c\x1e'
p94
tp95
Rp96
tp97
a(F33.739942901635089
I13
g1
(S'\x07\xd4\x03\x1e'
p98
tp99
Rp100
tp101
a(F47.185709470845971
I14
g1
(S'\x07\xd4\x06\x1e'
p102
tp103
Rp104
tp105
a(F31.670625494853525
I12
g1
(S'\x07\xd4\t\x1e'
p106
tp107
Rp108
tp109
a(F15.532774153463809
I5
g1
(S'\x07\xd4\x0c\x1e'
p110
tp111
Rp112
tp113
a(F11.481056257175661
I5
g1
(S'\x07\xd5\x03\x1e'
p114
tp115
Rp116
tp117
a(F18.608978832286578
I8
g1
(S'\x07\xd5\x06\x1e'
p118
tp119
Rp120
tp121
a(F12.748597654258031
I5
g1
(S'\x07\xd5\t\x1e'
p122
tp123
Rp124
tp125
a(F7.2992700729927007
I2
g1
(S'\x07\xd5\x0c\x1e'
p126
tp127
Rp128
tp129
a(F11.741682974559687
I3
g1
(S'\x07\xd6\x03\x1e'
p130
tp131
Rp132
tp133
a(F9.8619329388560164
I2
g1
(S'\x07\xd6\x06\x1e'
p134
tp135
Rp136
tp137
a(F0.0
I0
g1
(S'\x07\xd6\t\x1e'
p138
tp139
Rp140
tp141
a(F1.3014055179593962
I2
g1
(S'\x07\xd6\x0c\x1e'
p142
tp143
Rp144
tp145
a(F0.69715560513106523
I1
g1
(S'\x07\xd7\x03\x1e'
p146
tp147
Rp148
tp149
a(F0.9716284492809949
I1
g1
(S'\x07\xd7\x06\x1e'
p150
tp151
Rp152
tp153
a(F3.4415509923138696
I3
g1
(S'\x07\xd7\t\x1e'
p154
tp155
Rp156
tp157
a(F2.6893769610040339
I3
g1
(S'\x07\xd7\x0c\x1e'
p158
tp159
Rp160
tp161
a(F13.448090371167295
I5
g1
(S'\x07\xd8\x03\x1e'
p162
tp163
Rp164
tp165
a(F12.515644555694617
I2
g1
(S'\x07\xd8\x06\x1e'
p166
tp167
Rp168
tp169
a(F13.550135501355014
I1
g1
(S'\x07\xd8\t\x1e'
p170
tp171
Rp172
tp173
a(I0
I0
g1
(S'\x07\xd8\x0c\x1e'
p174
tp175
Rp176
tp177
a.