(lp0
(F0.0
I0
cdatetime
date
p1
(S'\x07\xce\x03\x1e'
p2
tp3
Rp4
tp5
a(I0
I0
g1
(S'\x07\xce\x06\x1e'
p6
tp7
Rp8
tp9
a(F0.0
I0
g1
(S'\x07\xce\t\x1e'
p10
tp11
Rp12
tp13
a(F0.0
I0
g1
(S'\x07\xce\x0c\x1e'
p14
tp15
Rp16
tp17
a(F0.0
I0
g1
(S'\x07\xcf\x03\x1e'
p18
tp19
Rp20
tp21
a(I0
I0
g1
(S'\x07\xcf\x06\x1e'
p22
tp23
Rp24
tp25
a(F0.0
I0
g1
(S'\x07\xcf\t\x1e'
p26
tp27
Rp28
tp29
a(F0.0
I0
g1
(S'\x07\xcf\x0c\x1e'
p30
tp31
Rp32
tp33
a(F56.179775280898873
I3
g1
(S'\x07\xd0\x03\x1e'
p34
tp35
Rp36
tp37
a(F189.22852983988355
I26
g1
(S'\x07\xd0\x06\x1e'
p38
tp39
Rp40
tp41
a(F111.11111111111111
I20
g1
(S'\x07\xd0\t\x1e'
p42
tp43
Rp44
tp45
a(F118.06981519507187
I23
g1
(S'\x07\xd0\x0c\x1e'
p46
tp47
Rp48
tp49
a(F278.06925498426023
I53
g1
(S'\x07\xd1\x03\x1e'
p50
tp51
Rp52
tp53
a(F295.91836734693879
I29
g1
(S'\x07\xd1\x06\x1e'
p54
tp55
Rp56
tp57
a(F315.78947368421052
I24
g1
(S'\x07\xd1\t\x1e'
p58
tp59
Rp60
tp61
a(F503.91937290033593
I45
g1
(S'\x07\xd1\x0c\x1e'
p62
tp63
Rp64
tp65
a(F555.55555555555554
I100
g1
(S'\x07\xd2\x03\x1e'
p66
tp67
Rp68
tp69
a(F645.47518650664938
I199
g1
(S'\x07\xd2\x06\x1e'
p70
tp71
Rp72
tp73
a(F506.44856873230577
I161
g1
(S'\x07\xd2\t\x1e'
p74
tp75
Rp76
tp77
a(F330.85752869682648
I98
g1
(S'\x07\xd2\x0c\x1e'
p78
tp79
Rp80
tp81
a(F277.51196172248802
I87
g1
(S'\x07\xd3\x03\x1e'
p82
tp83
Rp84
tp85
a(F553.15471045808124
I128
g1
(S'\x07\xd3\x06\x1e'
p86
tp87
Rp88
tp89
a(F319.59953792837888
I83
g1
(S'\x07\xd3\t\x1e'
p90
tp91
Rp92
tp93
a(F180.74074074074073
I61
g1
(S'\x07\xd3\x0c\x1e'
p94
tp95
Rp96
tp97
a(F173.89047495458084
I67
g1
(S'\x07\xd4\x03\x1e'
p98
tp99
Rp100
tp101
a(F239.29895517357599
I71
g1
(S'\x07\xd4\x06\x1e'
p102
tp103
Rp104
tp105
a(F166.27078384798099
I63
g1
(S'\x07\xd4\t\x1e'
p106
tp107
Rp108
tp109
a(F158.43429636533085
I51
g1
(S'\x07\xd4\x0c\x1e'
p110
tp111
Rp112
tp113
a(F89.552238805970148
I39
g1
(S'\x07\xd5\x03\x1e'
p114
tp115
Rp116
tp117
a(F120.95836240986276
I52
g1
(S'\x07\xd5\x06\x1e'
p118
tp119
Rp120
tp121
a(F311.06578276389598
I122
g1
(S'\x07\xd5\t\x1e'
p122
tp123
Rp124
tp125
a(F218.97810218978103
I60
g1
(S'\x07\xd5\x0c\x1e'
p126
tp127
Rp128
tp129
a(F140.90019569471625
I36
g1
(S'\x07\xd6\x03\x1e'
p130
tp131
Rp132
tp133
a(F108.48126232741618
I22
g1
(S'\x07\xd6\x06\x1e'
p134
tp135
Rp136
tp137
a(F89.906007355946059
I22
g1
(S'\x07\xd6\t\x1e'
p138
tp139
Rp140
tp141
a(F16.91827173347215
I26
g1
(S'\x07\xd6\x0c\x1e'
p142
tp143
Rp144
tp145
a(F7.6687116564417179
I11
g1
(S'\x07\xd7\x03\x1e'
p146
tp147
Rp148
tp149
a(F16.517683637776916
I17
g1
(S'\x07\xd7\x06\x1e'
p150
tp151
Rp152
tp153
a(F16.060571297464723
I14
g1
(S'\x07\xd7\t\x1e'
p154
tp155
Rp156
tp157
a(F7.1716718960107579
I8
g1
(S'\x07\xd7\x0c\x1e'
p158
tp159
Rp160
tp161
a(F67.240451855836469
I25
g1
(S'\x07\xd8\x03\x1e'
p162
tp163
Rp164
tp165
a(F350.43804755944933
I56
g1
(S'\x07\xd8\x06\x1e'
p166
tp167
Rp168
tp169
a(F149.05149051490514
I11
g1
(S'\x07\xd8\t\x1e'
p170
tp171
Rp172
tp173
a(I0
I0
g1
(S'\x07\xd8\x0c\x1e'
p174
tp175
Rp176
tp177
a.